; Function Attrs: nounwind uwtable
define i32 @WebPAnimEncoderSetChunk(ptr noundef readonly captures(address_is_null) %0, ptr noundef %1, ptr noundef %2, i32 noundef %3) local_unnamed_addr #1 {
  %5 = icmp eq ptr %0, null
  br i1 %5, label %10, label %6

6:                                                ; preds = %4
  %7 = getelementptr inbounds nuw i8, ptr %0, i64 1184
  %8 = load ptr, ptr %7, align 8, !tbaa !42
  %9 = tail call i32 @WebPMuxSetChunk(ptr noundef %8, ptr noundef %1, ptr noundef %2, i32 noundef %3) #14
  br label %10

10:                                               ; preds = %4, %6
  %.0 = phi i32 [ %9, %6 ], [ -1, %4 ]
  ret i32 %.0
}